target datalayout = "e-m:e-p270:32:32-p271:32:32-p272:64:64-i64:64-i128:128-f80:128-n8:16:32:64-S128"
target triple = "x86_64-pc-linux-gnu"

%struct.TPoint_ = type { i64, i64 }

; Function Attrs: nounwind uwtable
define internal void @Split_Cubic(ptr noundef %0) #0 {
  %2 = alloca ptr, align 8
  %3 = alloca i64, align 8
  %4 = alloca i64, align 8
  %5 = alloca i64, align 8
  store ptr %0, ptr %2, align 8, !tbaa !161
  call void @llvm.lifetime.start.p0(i64 8, ptr %3) #5
  call void @llvm.lifetime.start.p0(i64 8, ptr %4) #5
  call void @llvm.lifetime.start.p0(i64 8, ptr %5) #5
  %6 = load ptr, ptr %2, align 8, !tbaa !161
  %7 = getelementptr inbounds %struct.TPoint_, ptr %6, i64 3
  %8 = getelementptr inbounds nuw %struct.TPoint_, ptr %7, i32 0, i32 0
  %9 = load i64, ptr %8, align 8, !tbaa !163
  %10 = load ptr, ptr %2, align 8, !tbaa !161
  %11 = getelementptr inbounds %struct.TPoint_, ptr %10, i64 6
  %12 = getelementptr inbounds nuw %struct.TPoint_, ptr %11, i32 0, i32 0
  store i64 %9, ptr %12, align 8, !tbaa !163
  %13 = load ptr, ptr %2, align 8, !tbaa !161
  %14 = getelementptr inbounds %struct.TPoint_, ptr %13, i64 0
  %15 = getelementptr inbounds nuw %struct.TPoint_, ptr %14, i32 0, i32 0
  %16 = load i64, ptr %15, align 8, !tbaa !163
  %17 = load ptr, ptr %2, align 8, !tbaa !161
  %18 = getelementptr inbounds %struct.TPoint_, ptr %17, i64 1
  %19 = getelementptr inbounds nuw %struct.TPoint_, ptr %18, i32 0, i32 0
  %20 = load i64, ptr %19, align 8, !tbaa !163
  %21 = add nsw i64 %16, %20
  store i64 %21, ptr %3, align 8, !tbaa !23
  %22 = load ptr, ptr %2, align 8, !tbaa !161
  %23 = getelementptr inbounds %struct.TPoint_, ptr %22, i64 1
  %24 = getelementptr inbounds nuw %struct.TPoint_, ptr %23, i32 0, i32 0
  %25 = load i64, ptr %24, align 8, !tbaa !163
  %26 = load ptr, ptr %2, align 8, !tbaa !161
  %27 = getelementptr inbounds %struct.TPoint_, ptr %26, i64 2
  %28 = getelementptr inbounds nuw %struct.TPoint_, ptr %27, i32 0, i32 0
  %29 = load i64, ptr %28, align 8, !tbaa !163
  %30 = add nsw i64 %25, %29
  store i64 %30, ptr %4, align 8, !tbaa !23
  %31 = load ptr, ptr %2, align 8, !tbaa !161
  %32 = getelementptr inbounds %struct.TPoint_, ptr %31, i64 2
  %33 = getelementptr inbounds nuw %struct.TPoint_, ptr %32, i32 0, i32 0
  %34 = load i64, ptr %33, align 8, !tbaa !163
  %35 = load ptr, ptr %2, align 8, !tbaa !161
  %36 = getelementptr inbounds %struct.TPoint_, ptr %35, i64 3
  %37 = getelementptr inbounds nuw %struct.TPoint_, ptr %36, i32 0, i32 0
  %38 = load i64, ptr %37, align 8, !tbaa !163
  %39 = add nsw i64 %34, %38
  store i64 %39, ptr %5, align 8, !tbaa !23
  %40 = load i64, ptr %5, align 8, !tbaa !23
  %41 = ashr i64 %40, 1
  %42 = load ptr, ptr %2, align 8, !tbaa !161
  %43 = getelementptr inbounds %struct.TPoint_, ptr %42, i64 5
  %44 = getelementptr inbounds nuw %struct.TPoint_, ptr %43, i32 0, i32 0
  store i64 %41, ptr %44, align 8, !tbaa !163
  %45 = load i64, ptr %4, align 8, !tbaa !23
  %46 = load i64, ptr %5, align 8, !tbaa !23
  %47 = add nsw i64 %46, %45
  store i64 %47, ptr %5, align 8, !tbaa !23
  %48 = load i64, ptr %5, align 8, !tbaa !23
  %49 = ashr i64 %48, 2
  %50 = load ptr, ptr %2, align 8, !tbaa !161
  %51 = getelementptr inbounds %struct.TPoint_, ptr %50, i64 4
  %52 = getelementptr inbounds nuw %struct.TPoint_, ptr %51, i32 0, i32 0
  store i64 %49, ptr %52, align 8, !tbaa !163
  %53 = load i64, ptr %3, align 8, !tbaa !23
  %54 = ashr i64 %53, 1
  %55 = load ptr, ptr %2, align 8, !tbaa !161
  %56 = getelementptr inbounds %struct.TPoint_, ptr %55, i64 1
  %57 = getelementptr inbounds nuw %struct.TPoint_, ptr %56, i32 0, i32 0
  store i64 %54, ptr %57, align 8, !tbaa !163
  %58 = load i64, ptr %4, align 8, !tbaa !23
  %59 = load i64, ptr %3, align 8, !tbaa !23
  %60 = add nsw i64 %59, %58
  store i64 %60, ptr %3, align 8, !tbaa !23
  %61 = load i64, ptr %3, align 8, !tbaa !23
  %62 = ashr i64 %61, 2
  %63 = load ptr, ptr %2, align 8, !tbaa !161
  %64 = getelementptr inbounds %struct.TPoint_, ptr %63, i64 2
  %65 = getelementptr inbounds nuw %struct.TPoint_, ptr %64, i32 0, i32 0
  store i64 %62, ptr %65, align 8, !tbaa !163
  %66 = load i64, ptr %3, align 8, !tbaa !23
  %67 = load i64, ptr %5, align 8, !tbaa !23
  %68 = add nsw i64 %66, %67
  %69 = ashr i64 %68, 3
  %70 = load ptr, ptr %2, align 8, !tbaa !161
  %71 = getelementptr inbounds %struct.TPoint_, ptr %70, i64 3
  %72 = getelementptr inbounds nuw %struct.TPoint_, ptr %71, i32 0, i32 0
  store i64 %69, ptr %72, align 8, !tbaa !163
  %73 = load ptr, ptr %2, align 8, !tbaa !161
  %74 = getelementptr inbounds %struct.TPoint_, ptr %73, i64 3
  %75 = getelementptr inbounds nuw %struct.TPoint_, ptr %74, i32 0, i32 1
  %76 = load i64, ptr %75, align 8, !tbaa !165
  %77 = load ptr, ptr %2, align 8, !tbaa !161
  %78 = getelementptr inbounds %struct.TPoint_, ptr %77, i64 6
  %79 = getelementptr inbounds nuw %struct.TPoint_, ptr %78, i32 0, i32 1
  store i64 %76, ptr %79, align 8, !tbaa !165
  %80 = load ptr, ptr %2, align 8, !tbaa !161
  %81 = getelementptr inbounds %struct.TPoint_, ptr %80, i64 0
  %82 = getelementptr inbounds nuw %struct.TPoint_, ptr %81, i32 0, i32 1
  %83 = load i64, ptr %82, align 8, !tbaa !165
  %84 = load ptr, ptr %2, align 8, !tbaa !161
  %85 = getelementptr inbounds %struct.TPoint_, ptr %84, i64 1
  %86 = getelementptr inbounds nuw %struct.TPoint_, ptr %85, i32 0, i32 1
  %87 = load i64, ptr %86, align 8, !tbaa !165
  %88 = add nsw i64 %83, %87
  store i64 %88, ptr %3, align 8, !tbaa !23
  %89 = load ptr, ptr %2, align 8, !tbaa !161
  %90 = getelementptr inbounds %struct.TPoint_, ptr %89, i64 1
  %91 = getelementptr inbounds nuw %struct.TPoint_, ptr %90, i32 0, i32 1
  %92 = load i64, ptr %91, align 8, !tbaa !165
  %93 = load ptr, ptr %2, align 8, !tbaa !161
  %94 = getelementptr inbounds %struct.TPoint_, ptr %93, i64 2
  %95 = getelementptr inbounds nuw %struct.TPoint_, ptr %94, i32 0, i32 1
  %96 = load i64, ptr %95, align 8, !tbaa !165
  %97 = add nsw i64 %92, %96
  store i64 %97, ptr %4, align 8, !tbaa !23
  %98 = load ptr, ptr %2, align 8, !tbaa !161
  %99 = getelementptr inbounds %struct.TPoint_, ptr %98, i64 2
  %100 = getelementptr inbounds nuw %struct.TPoint_, ptr %99, i32 0, i32 1
  %101 = load i64, ptr %100, align 8, !tbaa !165
  %102 = load ptr, ptr %2, align 8, !tbaa !161
  %103 = getelementptr inbounds %struct.TPoint_, ptr %102, i64 3
  %104 = getelementptr inbounds nuw %struct.TPoint_, ptr %103, i32 0, i32 1
  %105 = load i64, ptr %104, align 8, !tbaa !165
  %106 = add nsw i64 %101, %105
  store i64 %106, ptr %5, align 8, !tbaa !23
  %107 = load i64, ptr %5, align 8, !tbaa !23
  %108 = ashr i64 %107, 1
  %109 = load ptr, ptr %2, align 8, !tbaa !161
  %110 = getelementptr inbounds %struct.TPoint_, ptr %109, i64 5
  %111 = getelementptr inbounds nuw %struct.TPoint_, ptr %110, i32 0, i32 1
  store i64 %108, ptr %111, align 8, !tbaa !165
  %112 = load i64, ptr %4, align 8, !tbaa !23
  %113 = load i64, ptr %5, align 8, !tbaa !23
  %114 = add nsw i64 %113, %112
  store i64 %114, ptr %5, align 8, !tbaa !23
  %115 = load i64, ptr %5, align 8, !tbaa !23
  %116 = ashr i64 %115, 2
  %117 = load ptr, ptr %2, align 8, !tbaa !161
  %118 = getelementptr inbounds %struct.TPoint_, ptr %117, i64 4
  %119 = getelementptr inbounds nuw %struct.TPoint_, ptr %118, i32 0, i32 1
  store i64 %116, ptr %119, align 8, !tbaa !165
  %120 = load i64, ptr %3, align 8, !tbaa !23
  %121 = ashr i64 %120, 1
  %122 = load ptr, ptr %2, align 8, !tbaa !161
  %123 = getelementptr inbounds %struct.TPoint_, ptr %122, i64 1
  %124 = getelementptr inbounds nuw %struct.TPoint_, ptr %123, i32 0, i32 1
  store i64 %121, ptr %124, align 8, !tbaa !165
  %125 = load i64, ptr %4, align 8, !tbaa !23
  %126 = load i64, ptr %3, align 8, !tbaa !23
  %127 = add nsw i64 %126, %125
  store i64 %127, ptr %3, align 8, !tbaa !23
  %128 = load i64, ptr %3, align 8, !tbaa !23
  %129 = ashr i64 %128, 2
  %130 = load ptr, ptr %2, align 8, !tbaa !161
  %131 = getelementptr inbounds %struct.TPoint_, ptr %130, i64 2
  %132 = getelementptr inbounds nuw %struct.TPoint_, ptr %131, i32 0, i32 1
  store i64 %129, ptr %132, align 8, !tbaa !165
  %133 = load i64, ptr %3, align 8, !tbaa !23
  %134 = load i64, ptr %5, align 8, !tbaa !23
  %135 = add nsw i64 %133, %134
  %136 = ashr i64 %135, 3
  %137 = load ptr, ptr %2, align 8, !tbaa !161
  %138 = getelementptr inbounds %struct.TPoint_, ptr %137, i64 3
  %139 = getelementptr inbounds nuw %struct.TPoint_, ptr %138, i32 0, i32 1
  store i64 %136, ptr %139, align 8, !tbaa !165
  call void @llvm.lifetime.end.p0(i64 8, ptr %5) #5
  call void @llvm.lifetime.end.p0(i64 8, ptr %4) #5
  call void @llvm.lifetime.end.p0(i64 8, ptr %3) #5
  ret void
}