; Function Attrs: mustprogress nofree norecurse nosync nounwind willreturn memory(argmem: readwrite) uwtable
define internal void @Split_Cubic(ptr noundef captures(none) initializes((64, 112)) %0) #5 {
  %2 = getelementptr inbounds nuw i8, ptr %0, i64 48
  %3 = load i64, ptr %2, align 8, !tbaa !139
  %4 = getelementptr inbounds nuw i8, ptr %0, i64 96
  store i64 %3, ptr %4, align 8, !tbaa !139
  %5 = load i64, ptr %0, align 8, !tbaa !139
  %6 = getelementptr inbounds nuw i8, ptr %0, i64 16
  %7 = load i64, ptr %6, align 8, !tbaa !139
  %8 = add nsw i64 %7, %5
  %9 = getelementptr inbounds nuw i8, ptr %0, i64 32
  %10 = load i64, ptr %9, align 8, !tbaa !139
  %11 = add nsw i64 %10, %7
  %12 = add nsw i64 %10, %3
  %13 = ashr i64 %12, 1
  %14 = getelementptr inbounds nuw i8, ptr %0, i64 80
  store i64 %13, ptr %14, align 8, !tbaa !139
  %15 = add nsw i64 %12, %11
  %16 = ashr i64 %15, 2
  %17 = getelementptr inbounds nuw i8, ptr %0, i64 64
  store i64 %16, ptr %17, align 8, !tbaa !139
  %18 = ashr i64 %8, 1
  store i64 %18, ptr %6, align 8, !tbaa !139
  %19 = add nsw i64 %11, %8
  %20 = ashr i64 %19, 2
  store i64 %20, ptr %9, align 8, !tbaa !139
  %21 = add nsw i64 %19, %15
  %22 = ashr i64 %21, 3
  store i64 %22, ptr %2, align 8, !tbaa !139
  %23 = getelementptr inbounds nuw i8, ptr %0, i64 56
  %24 = load i64, ptr %23, align 8, !tbaa !141
  %25 = getelementptr inbounds nuw i8, ptr %0, i64 104
  store i64 %24, ptr %25, align 8, !tbaa !141
  %26 = getelementptr inbounds nuw i8, ptr %0, i64 8
  %27 = load i64, ptr %26, align 8, !tbaa !141
  %28 = getelementptr inbounds nuw i8, ptr %0, i64 24
  %29 = load i64, ptr %28, align 8, !tbaa !141
  %30 = add nsw i64 %29, %27
  %31 = getelementptr inbounds nuw i8, ptr %0, i64 40
  %32 = load i64, ptr %31, align 8, !tbaa !141
  %33 = add nsw i64 %32, %29
  %34 = add nsw i64 %32, %24
  %35 = ashr i64 %34, 1
  %36 = getelementptr inbounds nuw i8, ptr %0, i64 88
  store i64 %35, ptr %36, align 8, !tbaa !141
  %37 = add nsw i64 %34, %33
  %38 = ashr i64 %37, 2
  %39 = getelementptr inbounds nuw i8, ptr %0, i64 72
  store i64 %38, ptr %39, align 8, !tbaa !141
  %40 = ashr i64 %30, 1
  store i64 %40, ptr %28, align 8, !tbaa !141
  %41 = add nsw i64 %33, %30
  %42 = ashr i64 %41, 2
  store i64 %42, ptr %31, align 8, !tbaa !141
  %43 = add nsw i64 %41, %37
  %44 = ashr i64 %43, 3
  store i64 %44, ptr %23, align 8, !tbaa !141
  ret void
}